target datalayout = "e-m:e-p270:32:32-p271:32:32-p272:64:64-i64:64-i128:128-f80:128-n8:16:32:64-S128"
target triple = "x86_64-pc-linux-gnu"

; Function Attrs: alwaysinline nounwind uwtable
define internal void @mbedtls_put_unaligned_uint16(ptr noundef %0, i16 noundef zeroext %1) #8 {
  %3 = alloca ptr, align 8
  %4 = alloca i16, align 2
  store ptr %0, ptr %3, align 8, !tbaa !37
  store i16 %1, ptr %4, align 2, !tbaa !141
  %5 = load ptr, ptr %3, align 8, !tbaa !37
  call void @llvm.memcpy.p0.p0.i64(ptr align 1 %5, ptr align 2 %4, i64 2, i1 false)
  ret void
}

; Function Attrs: nounwind uwtable
define hidden void @mbedtls_ssl_write_version(ptr noundef %0, i32 noundef %1, i32 noundef %2) #0 {
  %4 = alloca ptr, align 8
  %5 = alloca i32, align 4
  %6 = alloca i32, align 4
  %7 = alloca i16, align 2
  store ptr %0, ptr %4, align 8, !tbaa !21
  store i32 %1, ptr %5, align 4, !tbaa !8
  store i32 %2, ptr %6, align 4, !tbaa !8
  call void @llvm.lifetime.start.p0(i64 2, ptr %7) #11
  %8 = load i32, ptr %5, align 4, !tbaa !8
  %9 = icmp eq i32 %8, 1
  br i1 %9, label %10, label %18

10:                                               ; preds = %3
  %11 = load i32, ptr %6, align 4, !tbaa !8
  %12 = load i32, ptr %6, align 4, !tbaa !8
  %13 = icmp eq i32 %12, 770
  %14 = select i1 %13, i32 514, i32 513
  %15 = sub i32 %11, %14
  %16 = xor i32 %15, -1
  %17 = trunc i32 %16 to i16
  store i16 %17, ptr %7, align 2, !tbaa !141
  br label %21

18:                                               ; preds = %3
  %19 = load i32, ptr %6, align 4, !tbaa !8
  %20 = trunc i32 %19 to i16
  store i16 %20, ptr %7, align 2, !tbaa !141
  br label %21

21:                                               ; preds = %18, %10
  %22 = load ptr, ptr %4, align 8, !tbaa !21
  %23 = getelementptr inbounds i8, ptr %22, i64 0
  %24 = load i16, ptr %7, align 2, !tbaa !141
  %25 = call i16 @llvm.bswap.i16(i16 %24)
  call void @mbedtls_put_unaligned_uint16(ptr noundef %23, i16 noundef zeroext %25)
  call void @llvm.lifetime.end.p0(i64 2, ptr %7) #11
  ret void
}