; Function Attrs: mustprogress nofree norecurse nosync nounwind willreturn memory(argmem: write) uwtable
define hidden void @mbedtls_ssl_write_version(ptr noundef writeonly captures(none) initializes((0, 2)) %0, i32 noundef %1, i32 noundef %2) local_unnamed_addr #11 {
  %4 = icmp eq i32 %1, 1
  %5 = icmp eq i32 %2, 770
  %6 = select i1 %5, i32 513, i32 512
  %7 = sub i32 %6, %2
  %.0.in = select i1 %4, i32 %7, i32 %2
  %.0 = trunc i32 %.0.in to i16
  %8 = tail call i16 @llvm.bswap.i16(i16 %.0)
  store i16 %8, ptr %0, align 1
  ret void
}